target datalayout = "e-m:e-p270:32:32-p271:32:32-p272:64:64-i64:64-i128:128-f80:128-n8:16:32:64-S128"
target triple = "x86_64-pc-linux-gnu"

%struct._GdkRGBA = type { double, double, double, double }

@.str.4 = private unnamed_addr constant [11 x i8] c"dt_gslider\00", align 1

; Function Attrs: nounwind uwtable
define ptr @dtgtk_gradient_slider_new_with_color(ptr noundef byval(%struct._GdkRGBA) align 8 %0, ptr noundef byval(%struct._GdkRGBA) align 8 %1) #0 {
  %3 = alloca ptr, align 8
  call void @llvm.lifetime.start.p0(i64 8, ptr %3) #11
  %4 = call ptr @dtgtk_gradient_slider_multivalue_new_with_color(ptr noundef byval(%struct._GdkRGBA) align 8 %0, ptr noundef byval(%struct._GdkRGBA) align 8 %1, i32 noundef 1)
  store ptr %4, ptr %3, align 8, !tbaa !54
  %5 = load ptr, ptr %3, align 8, !tbaa !54
  call void @dt_gui_add_class(ptr noundef %5, ptr noundef @.str.4)
  %6 = load ptr, ptr %3, align 8, !tbaa !54
  call void @llvm.lifetime.end.p0(i64 8, ptr %3) #11
  ret ptr %6
}

; Function Attrs: nounwind uwtable
define ptr @dtgtk_gradient_slider_new_with_color_and_name(ptr noundef byval(%struct._GdkRGBA) align 8 %0, ptr noundef byval(%struct._GdkRGBA) align 8 %1, ptr noundef %2) #0 {
  %4 = alloca ptr, align 8
  %5 = alloca ptr, align 8
  store ptr %2, ptr %4, align 8, !tbaa !52
  call void @llvm.lifetime.start.p0(i64 8, ptr %5) #11
  %6 = call ptr @dtgtk_gradient_slider_new_with_color(ptr noundef byval(%struct._GdkRGBA) align 8 %0, ptr noundef byval(%struct._GdkRGBA) align 8 %1)
  %7 = call i64 @gtk_widget_get_type() #12
  %8 = call ptr @g_type_check_instance_cast(ptr noundef %6, i64 noundef %7)
  store ptr %8, ptr %5, align 8, !tbaa !54
  %9 = load ptr, ptr %4, align 8, !tbaa !52
  %10 = icmp ne ptr %9, null
  br i1 %10, label %11, label %14

11:                                               ; preds = %3
  %12 = load ptr, ptr %5, align 8, !tbaa !54
  %13 = load ptr, ptr %4, align 8, !tbaa !52
  call void @gtk_widget_set_name(ptr noundef %12, ptr noundef %13)
  br label %14

14:                                               ; preds = %11, %3
  %15 = load ptr, ptr %5, align 8, !tbaa !54
  call void @llvm.lifetime.end.p0(i64 8, ptr %5) #11
  ret ptr %15
}