; Function Attrs: nounwind uwtable
define ptr @dtgtk_gradient_slider_new_with_color_and_name(ptr noundef readonly byval(%struct._GdkRGBA) align 8 captures(none) %0, ptr noundef readonly byval(%struct._GdkRGBA) align 8 captures(none) %1, ptr noundef %2) local_unnamed_addr #0 {
  %4 = tail call ptr @dtgtk_gradient_slider_multivalue_new_with_color(ptr noundef nonnull byval(%struct._GdkRGBA) align 8 %0, ptr noundef nonnull byval(%struct._GdkRGBA) align 8 %1, i32 noundef 1)
  tail call void @dt_gui_add_class(ptr noundef %4, ptr noundef nonnull @.str.4) #14
  %5 = tail call i64 @gtk_widget_get_type() #15
  %6 = tail call ptr @g_type_check_instance_cast(ptr noundef %4, i64 noundef %5) #14
  %.not = icmp eq ptr %2, null
  br i1 %.not, label %8, label %7

7:                                                ; preds = %3
  tail call void @gtk_widget_set_name(ptr noundef %6, ptr noundef nonnull %2) #14
  br label %8

8:                                                ; preds = %7, %3
  ret ptr %6
}